target datalayout = "e-m:e-p270:32:32-p271:32:32-p272:64:64-i64:64-i128:128-f80:128-n8:16:32:64-S128"
target triple = "x86_64-pc-linux-gnu"

%class.ScanTree = type { [1024 x ptr], i32, i32, ptr, i32, i8, i32, i32, i8, [2048 x i32], [2048 x i32], %class.StringList, %class.StringList, ptr, ptr, i8, i8, i64, [2048 x i32], ptr }
%class.StringList = type { %class.Array, i64, i64, [16 x i64], i64 }
%class.Array = type { ptr, i64, i64, i64 }

; Function Attrs: mustprogress nounwind uwtable
define linkonce_odr void @_ZN5ArrayIwED2Ev(ptr noundef nonnull align 8 dereferenceable(32) %0) unnamed_addr #4 comdat align 2 {
  %2 = alloca ptr, align 8
  store ptr %0, ptr %2, align 8, !tbaa !70
  %3 = load ptr, ptr %2, align 8
  %4 = getelementptr inbounds nuw %class.Array, ptr %3, i32 0, i32 0
  %5 = load ptr, ptr %4, align 8, !tbaa !72
  %6 = icmp ne ptr %5, null
  br i1 %6, label %7, label %10

7:                                                ; preds = %1
  %8 = getelementptr inbounds nuw %class.Array, ptr %3, i32 0, i32 0
  %9 = load ptr, ptr %8, align 8, !tbaa !72
  call void @free(ptr noundef %9) #12
  br label %10

10:                                               ; preds = %7, %1
  ret void
}

; Function Attrs: inlinehint mustprogress nounwind uwtable
define linkonce_odr void @_ZN10StringListD2Ev(ptr noundef nonnull align 8 dereferenceable(184) %0) unnamed_addr #3 comdat align 2 {
  %2 = alloca ptr, align 8
  store ptr %0, ptr %2, align 8, !tbaa !8
  %3 = load ptr, ptr %2, align 8
  %4 = getelementptr inbounds nuw %class.StringList, ptr %3, i32 0, i32 0
  call void @_ZN5ArrayIwED2Ev(ptr noundef nonnull align 8 dereferenceable(32) %4) #12
  ret void
}

; Function Attrs: mustprogress nounwind uwtable
define void @_ZN8ScanTreeD2Ev(ptr noundef nonnull align 8 dereferenceable(33216) %0) unnamed_addr #4 align 2 {
  %2 = alloca ptr, align 8
  %3 = alloca i32, align 4
  store ptr %0, ptr %2, align 8, !tbaa !3
  %4 = load ptr, ptr %2, align 8
  call void @llvm.lifetime.start.p0(i64 4, ptr %3) #12
  %5 = getelementptr inbounds nuw %class.ScanTree, ptr %4, i32 0, i32 1
  %6 = load i32, ptr %5, align 8, !tbaa !35
  store i32 %6, ptr %3, align 4, !tbaa !40
  br label %7

7:                                                ; preds = %28, %1
  %8 = load i32, ptr %3, align 4, !tbaa !40
  %9 = icmp sge i32 %8, 0
  br i1 %9, label %11, label %10

10:                                               ; preds = %7
  call void @llvm.lifetime.end.p0(i64 4, ptr %3) #12
  br label %31

11:                                               ; preds = %7
  %12 = getelementptr inbounds nuw %class.ScanTree, ptr %4, i32 0, i32 0
  %13 = load i32, ptr %3, align 4, !tbaa !40
  %14 = sext i32 %13 to i64
  %15 = getelementptr inbounds [1024 x ptr], ptr %12, i64 0, i64 %14
  %16 = load ptr, ptr %15, align 8, !tbaa !41
  %17 = icmp ne ptr %16, null
  br i1 %17, label %18, label %27

18:                                               ; preds = %11
  %19 = getelementptr inbounds nuw %class.ScanTree, ptr %4, i32 0, i32 0
  %20 = load i32, ptr %3, align 4, !tbaa !40
  %21 = sext i32 %20 to i64
  %22 = getelementptr inbounds [1024 x ptr], ptr %19, i64 0, i64 %21
  %23 = load ptr, ptr %22, align 8, !tbaa !41
  %24 = icmp eq ptr %23, null
  br i1 %24, label %26, label %25

25:                                               ; preds = %18
  call void @_ZN8FindFileD1Ev(ptr noundef nonnull align 8 dereferenceable(8208) %23) #12
  call void @_ZdlPv(ptr noundef %23) #13
  br label %26

26:                                               ; preds = %25, %18
  br label %27

27:                                               ; preds = %26, %11
  br label %28

28:                                               ; preds = %27
  %29 = load i32, ptr %3, align 4, !tbaa !40
  %30 = add nsw i32 %29, -1
  store i32 %30, ptr %3, align 4, !tbaa !40
  br label %7, !llvm.loop !43

31:                                               ; preds = %10
  %32 = getelementptr inbounds nuw %class.ScanTree, ptr %4, i32 0, i32 12
  call void @_ZN10StringListD2Ev(ptr noundef nonnull align 8 dereferenceable(184) %32) #12
  %33 = getelementptr inbounds nuw %class.ScanTree, ptr %4, i32 0, i32 11
  call void @_ZN10StringListD2Ev(ptr noundef nonnull align 8 dereferenceable(184) %33) #12
  ret void
}