; Function Attrs: mustprogress nounwind uwtable
define void @_ZN8ScanTreeD2Ev(ptr noundef nonnull readonly align 8 captures(none) dereferenceable(33216) %0) unnamed_addr #3 align 2 {
  %2 = getelementptr inbounds nuw i8, ptr %0, i64 8192
  %3 = load i32, ptr %2, align 8, !tbaa !28
  %4 = icmp sgt i32 %3, -1
  br i1 %4, label %.lr.ph.preheader, label %._crit_edge

.lr.ph.preheader:                                 ; preds = %1
  %5 = zext nneg i32 %3 to i64
  br label %.lr.ph

._crit_edge:                                      ; preds = %15, %1
  %6 = getelementptr inbounds nuw i8, ptr %0, i64 24800
  %7 = load ptr, ptr %6, align 8, !tbaa !27
  %.not.i.i = icmp eq ptr %7, null
  br i1 %.not.i.i, label %_ZN10StringListD2Ev.exit, label %8

8:                                                ; preds = %._crit_edge
  tail call void @free(ptr noundef nonnull %7) #13
  br label %_ZN10StringListD2Ev.exit

_ZN10StringListD2Ev.exit:                         ; preds = %._crit_edge, %8
  %9 = getelementptr inbounds nuw i8, ptr %0, i64 24616
  %10 = load ptr, ptr %9, align 8, !tbaa !27
  %.not.i.i5 = icmp eq ptr %10, null
  br i1 %.not.i.i5, label %_ZN10StringListD2Ev.exit6, label %11

11:                                               ; preds = %_ZN10StringListD2Ev.exit
  tail call void @free(ptr noundef nonnull %10) #13
  br label %_ZN10StringListD2Ev.exit6

_ZN10StringListD2Ev.exit6:                        ; preds = %_ZN10StringListD2Ev.exit, %11
  ret void

.lr.ph:                                           ; preds = %.lr.ph.preheader, %15
  %indvars.iv = phi i64 [ %5, %.lr.ph.preheader ], [ %indvars.iv.next, %15 ]
  %12 = getelementptr inbounds nuw [1024 x ptr], ptr %0, i64 0, i64 %indvars.iv
  %13 = load ptr, ptr %12, align 8, !tbaa !29
  %.not = icmp eq ptr %13, null
  br i1 %.not, label %15, label %14

14:                                               ; preds = %.lr.ph
  tail call void @_ZN8FindFileD1Ev(ptr noundef nonnull align 8 dereferenceable(8208) %13) #13
  tail call void @_ZdlPv(ptr noundef nonnull %13) #14
  br label %15

15:                                               ; preds = %.lr.ph, %14
  %indvars.iv.next = add nsw i64 %indvars.iv, -1
  %16 = icmp sgt i64 %indvars.iv, 0
  br i1 %16, label %.lr.ph, label %._crit_edge, !llvm.loop !31
}